; Function Attrs: nounwind uwtable
define internal void @dataDeviceHandleDrop(ptr readnone captures(none) %0, ptr readnone captures(none) %1) #0 {
  %3 = alloca i32, align 4
  %4 = load ptr, ptr getelementptr inbounds nuw (i8, ptr @_glfw, i64 134064), align 8, !tbaa !177
  %.not = icmp eq ptr %4, null
  br i1 %.not, label %21, label %5

5:                                                ; preds = %2
  %6 = tail call fastcc ptr @readDataOfferAsString(ptr noundef nonnull %4, ptr noundef nonnull @.str.41)
  %.not12 = icmp eq ptr %6, null
  br i1 %.not12, label %20, label %7

7:                                                ; preds = %5
  call void @llvm.lifetime.start.p0(i64 4, ptr nonnull %3) #20
  %8 = call ptr @_glfwParseUriList(ptr noundef nonnull %6, ptr noundef nonnull %3) #20
  %.not13 = icmp eq ptr %8, null
  br i1 %.not13, label %12, label %9

9:                                                ; preds = %7
  %10 = load ptr, ptr getelementptr inbounds nuw (i8, ptr @_glfw, i64 134072), align 8, !tbaa !183
  %11 = load i32, ptr %3, align 4, !tbaa !147
  call void @_glfwInputDrop(ptr noundef %10, i32 noundef %11, ptr noundef nonnull %8) #20
  br label %12

12:                                               ; preds = %9, %7
  %13 = load i32, ptr %3, align 4, !tbaa !147
  %14 = icmp sgt i32 %13, 0
  br i1 %14, label %.lr.ph, label %._crit_edge

._crit_edge:                                      ; preds = %.lr.ph, %12
  call void @_glfw_free(ptr noundef %8) #20
  call void @llvm.lifetime.end.p0(i64 4, ptr nonnull %3) #20
  br label %20

.lr.ph:                                           ; preds = %12, %.lr.ph
  %indvars.iv = phi i64 [ %indvars.iv.next, %.lr.ph ], [ 0, %12 ]
  %15 = getelementptr inbounds nuw ptr, ptr %8, i64 %indvars.iv
  %16 = load ptr, ptr %15, align 8, !tbaa !186
  call void @_glfw_free(ptr noundef %16) #20
  %indvars.iv.next = add nuw nsw i64 %indvars.iv, 1
  %17 = load i32, ptr %3, align 4, !tbaa !147
  %18 = sext i32 %17 to i64
  %19 = icmp slt i64 %indvars.iv.next, %18
  br i1 %19, label %.lr.ph, label %._crit_edge

20:                                               ; preds = %._crit_edge, %5
  call void @_glfw_free(ptr noundef %6) #20
  br label %21

21:                                               ; preds = %2, %20
  ret void
}